; Function Attrs: mustprogress uwtable
define hidden void @_ZN3sls9bv_plugin5traceEv(ptr noundef nonnull readonly align 8 captures(none) dereferenceable(1049) %0) local_unnamed_addr #3 align 2 {
  %2 = tail call noundef i32 @_Z19get_verbosity_levelv()
  %3 = icmp ugt i32 %2, 1
  br i1 %3, label %4, label %22

4:                                                ; preds = %1
  %5 = tail call noundef zeroext i1 @_Z11is_threadedv()
  br i1 %5, label %6, label %14

6:                                                ; preds = %4
  tail call void @_Z12verbose_lockv()
  %7 = tail call noundef nonnull align 8 dereferenceable(8) ptr @_Z14verbose_streamv()
  %8 = tail call noundef nonnull align 8 dereferenceable(8) ptr @_ZSt16__ostream_insertIcSt11char_traitsIcEERSt13basic_ostreamIT_T0_ES6_PKS3_l(ptr noundef nonnull align 8 dereferenceable(8) %7, ptr noundef nonnull @.str.9, i64 noundef 17)
  %9 = getelementptr inbounds nuw i8, ptr %0, i64 992
  %10 = load i32, ptr %9, align 8, !tbaa !158
  %11 = zext i32 %10 to i64
  %12 = tail call noundef nonnull align 8 dereferenceable(8) ptr @_ZNSo9_M_insertImEERSoT_(ptr noundef nonnull align 8 dereferenceable(8) %7, i64 noundef %11)
  %13 = tail call noundef nonnull align 8 dereferenceable(8) ptr @_ZSt16__ostream_insertIcSt11char_traitsIcEERSt13basic_ostreamIT_T0_ES6_PKS3_l(ptr noundef nonnull align 8 dereferenceable(8) %12, ptr noundef nonnull @.str.10, i64 noundef 2)
  tail call void @_Z14verbose_unlockv()
  br label %22

14:                                               ; preds = %4
  %15 = tail call noundef nonnull align 8 dereferenceable(8) ptr @_Z14verbose_streamv()
  %16 = tail call noundef nonnull align 8 dereferenceable(8) ptr @_ZSt16__ostream_insertIcSt11char_traitsIcEERSt13basic_ostreamIT_T0_ES6_PKS3_l(ptr noundef nonnull align 8 dereferenceable(8) %15, ptr noundef nonnull @.str.9, i64 noundef 17)
  %17 = getelementptr inbounds nuw i8, ptr %0, i64 992
  %18 = load i32, ptr %17, align 8, !tbaa !158
  %19 = zext i32 %18 to i64
  %20 = tail call noundef nonnull align 8 dereferenceable(8) ptr @_ZNSo9_M_insertImEERSoT_(ptr noundef nonnull align 8 dereferenceable(8) %15, i64 noundef %19)
  %21 = tail call noundef nonnull align 8 dereferenceable(8) ptr @_ZSt16__ostream_insertIcSt11char_traitsIcEERSt13basic_ostreamIT_T0_ES6_PKS3_l(ptr noundef nonnull align 8 dereferenceable(8) %20, ptr noundef nonnull @.str.10, i64 noundef 2)
  br label %22

22:                                               ; preds = %6, %14, %1
  ret void
}